target datalayout = "e-m:e-p270:32:32-p271:32:32-p272:64:64-i64:64-i128:128-f80:128-n8:16:32:64-S128"
target triple = "x86_64-pc-linux-gnu"

%struct.bio_st = type { ptr, ptr, ptr, i32, i32, i32, i32, i32, i32, ptr, ptr, i64, i64 }

; Function Attrs: nounwind uwtable
define hidden void @BIO_set_flags(ptr noundef %0, i32 noundef %1) #0 {
  %3 = alloca ptr, align 8
  %4 = alloca i32, align 4
  store ptr %0, ptr %3, align 8, !tbaa !11
  store i32 %1, ptr %4, align 4, !tbaa !23
  %5 = load i32, ptr %4, align 4, !tbaa !23
  %6 = load ptr, ptr %3, align 8, !tbaa !11
  %7 = getelementptr inbounds nuw %struct.bio_st, ptr %6, i32 0, i32 5
  %8 = load i32, ptr %7, align 8, !tbaa !35
  %9 = or i32 %8, %5
  store i32 %9, ptr %7, align 8, !tbaa !35
  ret void
}

; Function Attrs: nounwind uwtable
define hidden i32 @BIO_get_retry_flags(ptr noundef %0) #0 {
  %2 = alloca ptr, align 8
  store ptr %0, ptr %2, align 8, !tbaa !11
  %3 = load ptr, ptr %2, align 8, !tbaa !11
  %4 = getelementptr inbounds nuw %struct.bio_st, ptr %3, i32 0, i32 5
  %5 = load i32, ptr %4, align 8, !tbaa !35
  %6 = and i32 %5, 15
  ret i32 %6
}

; Function Attrs: nounwind uwtable
define hidden void @BIO_clear_retry_flags(ptr noundef %0) #0 {
  %2 = alloca ptr, align 8
  store ptr %0, ptr %2, align 8, !tbaa !11
  %3 = load ptr, ptr %2, align 8, !tbaa !11
  %4 = getelementptr inbounds nuw %struct.bio_st, ptr %3, i32 0, i32 5
  %5 = load i32, ptr %4, align 8, !tbaa !35
  %6 = and i32 %5, -16
  store i32 %6, ptr %4, align 8, !tbaa !35
  %7 = load ptr, ptr %2, align 8, !tbaa !11
  %8 = getelementptr inbounds nuw %struct.bio_st, ptr %7, i32 0, i32 6
  store i32 0, ptr %8, align 4, !tbaa !36
  ret void
}

; Function Attrs: nounwind uwtable
define hidden void @BIO_copy_next_retry(ptr noundef %0) #0 {
  %2 = alloca ptr, align 8
  store ptr %0, ptr %2, align 8, !tbaa !11
  %3 = load ptr, ptr %2, align 8, !tbaa !11
  call void @BIO_clear_retry_flags(ptr noundef %3)
  %4 = load ptr, ptr %2, align 8, !tbaa !11
  %5 = load ptr, ptr %2, align 8, !tbaa !11
  %6 = getelementptr inbounds nuw %struct.bio_st, ptr %5, i32 0, i32 10
  %7 = load ptr, ptr %6, align 8, !tbaa !27
  %8 = call i32 @BIO_get_retry_flags(ptr noundef %7)
  call void @BIO_set_flags(ptr noundef %4, i32 noundef %8)
  %9 = load ptr, ptr %2, align 8, !tbaa !11
  %10 = getelementptr inbounds nuw %struct.bio_st, ptr %9, i32 0, i32 10
  %11 = load ptr, ptr %10, align 8, !tbaa !27
  %12 = getelementptr inbounds nuw %struct.bio_st, ptr %11, i32 0, i32 6
  %13 = load i32, ptr %12, align 4, !tbaa !36
  %14 = load ptr, ptr %2, align 8, !tbaa !11
  %15 = getelementptr inbounds nuw %struct.bio_st, ptr %14, i32 0, i32 6
  store i32 %13, ptr %15, align 4, !tbaa !36
  ret void
}