; Function Attrs: mustprogress nofree norecurse nosync nounwind willreturn memory(read, argmem: readwrite, inaccessiblemem: none) uwtable
define hidden void @BIO_copy_next_retry(ptr noundef captures(none) initializes((36, 40)) %0) local_unnamed_addr #9 {
  %2 = getelementptr inbounds nuw i8, ptr %0, i64 32
  %3 = load i32, ptr %2, align 8, !tbaa !31
  %4 = and i32 %3, -16
  store i32 %4, ptr %2, align 8, !tbaa !31
  %5 = getelementptr inbounds nuw i8, ptr %0, i64 36
  store i32 0, ptr %5, align 4, !tbaa !32
  %6 = getelementptr inbounds nuw i8, ptr %0, i64 56
  %7 = load ptr, ptr %6, align 8, !tbaa !21
  %8 = getelementptr inbounds nuw i8, ptr %7, i64 32
  %9 = load i32, ptr %8, align 8, !tbaa !31
  %10 = and i32 %9, 15
  %11 = or disjoint i32 %10, %4
  store i32 %11, ptr %2, align 8, !tbaa !31
  %12 = getelementptr inbounds nuw i8, ptr %7, i64 36
  %13 = load i32, ptr %12, align 4, !tbaa !32
  store i32 %13, ptr %5, align 4, !tbaa !32
  ret void
}